target datalayout = "e-m:e-p270:32:32-p271:32:32-p272:64:64-i64:64-i128:128-f80:128-n8:16:32:64-S128"
target triple = "x86_64-pc-linux-gnu"

%struct.sec_opts_s = type { i64, i64, i64, i64, i64 }
%struct.sec_s = type { %struct.pai_s, ptr, %struct.sec_opts_s, ptr, i32 }
%struct.pai_s = type { ptr, ptr, ptr, ptr, ptr, ptr, ptr }
%struct.sec_shard_s = type { %struct.malloc_mutex_s, i8, ptr, i64, i32 }
%struct.malloc_mutex_s = type { %union.anon }
%union.anon = type { %struct.anon }
%struct.anon = type { %struct.mutex_prof_data_t, %struct.atomic_b_t, %union.pthread_mutex_t }
%struct.mutex_prof_data_t = type { %struct.nstime_t, %struct.nstime_t, i64, i64, i32, %struct.atomic_u32_t, i64, ptr, i64 }
%struct.nstime_t = type { i64 }
%struct.atomic_u32_t = type { i32 }
%struct.atomic_b_t = type { i8 }
%union.pthread_mutex_t = type { %struct.__pthread_mutex_s }
%struct.__pthread_mutex_s = type { i32, i32, i32, i32, i32, i16, i16, %struct.__pthread_internal_list }
%struct.__pthread_internal_list = type { ptr, ptr }
%struct.sec_bin_s = type { i8, i64, %struct.edata_list_active_t }
%struct.edata_list_active_t = type { %struct.anon.1 }
%struct.anon.1 = type { ptr }

@.str = private unnamed_addr constant [10 x i8] c"sec_shard\00", align 1

; Function Attrs: inlinehint nounwind uwtable
define internal i32 @fls_lu(i64 noundef %0) #5 {
  %2 = alloca i64, align 8
  store i64 %0, ptr %2, align 8, !tbaa !19
  %3 = load i64, ptr %2, align 8, !tbaa !19
  %4 = icmp ne i64 %3, 0
  call void @llvm.assume(i1 %4)
  %5 = load i64, ptr %2, align 8, !tbaa !19
  %6 = call i64 @llvm.ctlz.i64(i64 %5, i1 true)
  %7 = trunc i64 %6 to i32
  %8 = sext i32 %7 to i64
  %9 = xor i64 63, %8
  %10 = trunc i64 %9 to i32
  ret i32 %10
}

; Function Attrs: inlinehint nounwind uwtable
define internal i32 @fls_u64(i64 noundef %0) #5 {
  %2 = alloca i64, align 8
  store i64 %0, ptr %2, align 8, !tbaa !19
  %3 = load i64, ptr %2, align 8, !tbaa !19
  %4 = call i32 @fls_lu(i64 noundef %3)
  ret i32 %4
}

; Function Attrs: inlinehint nounwind uwtable
define internal i32 @lg_floor(i64 noundef %0) #5 {
  %2 = alloca i64, align 8
  store i64 %0, ptr %2, align 8, !tbaa !19
  %3 = load i64, ptr %2, align 8, !tbaa !19
  %4 = icmp ne i64 %3, 0
  call void @llvm.assume(i1 %4)
  %5 = load i64, ptr %2, align 8, !tbaa !19
  %6 = call i32 @fls_u64(i64 noundef %5)
  ret i32 %6
}

; Function Attrs: inlinehint nounwind uwtable
define internal void @edata_list_active_init(ptr noundef %0) #5 {
  %2 = alloca ptr, align 8
  store ptr %0, ptr %2, align 8, !tbaa !23
  br label %3

3:                                                ; preds = %1
  %4 = load ptr, ptr %2, align 8, !tbaa !23
  %5 = getelementptr inbounds nuw %struct.edata_list_active_t, ptr %4, i32 0, i32 0
  %6 = getelementptr inbounds nuw %struct.anon.1, ptr %5, i32 0, i32 0
  store ptr null, ptr %6, align 8, !tbaa !76
  br label %7

7:                                                ; preds = %3
  ret void
}

; Function Attrs: inlinehint nounwind uwtable
define internal i32 @lg_ceil(i64 noundef %0) #5 {
  %2 = alloca i64, align 8
  store i64 %0, ptr %2, align 8, !tbaa !19
  %3 = load i64, ptr %2, align 8, !tbaa !19
  %4 = call i32 @lg_floor(i64 noundef %3)
  %5 = load i64, ptr %2, align 8, !tbaa !19
  %6 = load i64, ptr %2, align 8, !tbaa !19
  %7 = sub i64 %6, 1
  %8 = and i64 %5, %7
  %9 = icmp eq i64 %8, 0
  %10 = select i1 %9, i32 0, i32 1
  %11 = add i32 %4, %10
  ret i32 %11
}

; Function Attrs: nounwind uwtable
define internal void @sec_bin_init(ptr noundef %0) #0 {
  %2 = alloca ptr, align 8
  store ptr %0, ptr %2, align 8, !tbaa !29
  %3 = load ptr, ptr %2, align 8, !tbaa !29
  %4 = getelementptr inbounds nuw %struct.sec_bin_s, ptr %3, i32 0, i32 0
  store i8 0, ptr %4, align 8, !tbaa !50
  %5 = load ptr, ptr %2, align 8, !tbaa !29
  %6 = getelementptr inbounds nuw %struct.sec_bin_s, ptr %5, i32 0, i32 1
  store i64 0, ptr %6, align 8, !tbaa !55
  %7 = load ptr, ptr %2, align 8, !tbaa !29
  %8 = getelementptr inbounds nuw %struct.sec_bin_s, ptr %7, i32 0, i32 2
  call void @edata_list_active_init(ptr noundef %8)
  ret void
}

; Function Attrs: alwaysinline nounwind uwtable
define internal i32 @sz_psz2ind(i64 noundef %0) #2 {
  %2 = alloca i32, align 4
  %3 = alloca i64, align 8
  %4 = alloca i32, align 4
  %5 = alloca i32, align 4
  %6 = alloca i32, align 4
  %7 = alloca i32, align 4
  %8 = alloca i32, align 4
  %9 = alloca i32, align 4
  store i64 %0, ptr %3, align 8, !tbaa !19
  br label %10

10:                                               ; preds = %1
  br label %11

11:                                               ; preds = %10
  %12 = load i64, ptr %3, align 8, !tbaa !19
  %13 = icmp ugt i64 %12, 8070450532247928832
  %14 = xor i1 %13, true
  %15 = xor i1 %14, true
  %16 = zext i1 %15 to i32
  %17 = sext i32 %16 to i64
  %18 = call i64 @llvm.expect.i64(i64 %17, i64 0)
  %19 = icmp ne i64 %18, 0
  br i1 %19, label %20, label %21

20:                                               ; preds = %11
  store i32 199, ptr %2, align 4
  br label %54

21:                                               ; preds = %11
  call void @llvm.lifetime.start.p0(i64 4, ptr %4) #10
  %22 = load i64, ptr %3, align 8, !tbaa !19
  %23 = call i32 @lg_ceil(i64 noundef %22)
  store i32 %23, ptr %4, align 4, !tbaa !20
  call void @llvm.lifetime.start.p0(i64 4, ptr %5) #10
  %24 = load i32, ptr %4, align 4, !tbaa !20
  %25 = icmp ult i32 %24, 14
  br i1 %25, label %26, label %27

26:                                               ; preds = %21
  br label %30

27:                                               ; preds = %21
  %28 = load i32, ptr %4, align 4, !tbaa !20
  %29 = sub i32 %28, 14
  br label %30

30:                                               ; preds = %27, %26
  %31 = phi i32 [ 0, %26 ], [ %29, %27 ]
  store i32 %31, ptr %5, align 4, !tbaa !20
  call void @llvm.lifetime.start.p0(i64 4, ptr %6) #10
  %32 = load i32, ptr %5, align 4, !tbaa !20
  %33 = icmp eq i32 %32, 0
  br i1 %33, label %34, label %35

34:                                               ; preds = %30
  br label %39

35:                                               ; preds = %30
  %36 = load i32, ptr %5, align 4, !tbaa !20
  %37 = sub i32 %36, 1
  %38 = add i32 12, %37
  br label %39

39:                                               ; preds = %35, %34
  %40 = phi i32 [ 12, %34 ], [ %38, %35 ]
  store i32 %40, ptr %6, align 4, !tbaa !20
  call void @llvm.lifetime.start.p0(i64 4, ptr %7) #10
  %41 = load i64, ptr %3, align 8, !tbaa !19
  %42 = sub i64 %41, 1
  %43 = load i32, ptr %6, align 4, !tbaa !20
  %44 = zext i32 %43 to i64
  %45 = lshr i64 %42, %44
  %46 = and i64 %45, 3
  %47 = trunc i64 %46 to i32
  store i32 %47, ptr %7, align 4, !tbaa !20
  call void @llvm.lifetime.start.p0(i64 4, ptr %8) #10
  %48 = load i32, ptr %5, align 4, !tbaa !20
  %49 = shl i32 %48, 2
  store i32 %49, ptr %8, align 4, !tbaa !20
  call void @llvm.lifetime.start.p0(i64 4, ptr %9) #10
  %50 = load i32, ptr %8, align 4, !tbaa !20
  %51 = load i32, ptr %7, align 4, !tbaa !20
  %52 = add i32 %50, %51
  store i32 %52, ptr %9, align 4, !tbaa !20
  %53 = load i32, ptr %9, align 4, !tbaa !20
  store i32 %53, ptr %2, align 4
  call void @llvm.lifetime.end.p0(i64 4, ptr %9) #10
  call void @llvm.lifetime.end.p0(i64 4, ptr %8) #10
  call void @llvm.lifetime.end.p0(i64 4, ptr %7) #10
  call void @llvm.lifetime.end.p0(i64 4, ptr %6) #10
  call void @llvm.lifetime.end.p0(i64 4, ptr %5) #10
  call void @llvm.lifetime.end.p0(i64 4, ptr %4) #10
  br label %54

54:                                               ; preds = %39, %20
  %55 = load i32, ptr %2, align 4
  ret i32 %55
}

; Function Attrs: nounwind uwtable
define zeroext i1 @duckdb_je_sec_init(ptr noundef %0, ptr noundef %1, ptr noundef %2, ptr noundef %3, ptr noundef %4) #0 {
  %6 = alloca i1, align 1
  %7 = alloca ptr, align 8
  %8 = alloca ptr, align 8
  %9 = alloca ptr, align 8
  %10 = alloca ptr, align 8
  %11 = alloca ptr, align 8
  %12 = alloca i64, align 8
  %13 = alloca i32, align 4
  %14 = alloca i64, align 8
  %15 = alloca i64, align 8
  %16 = alloca i64, align 8
  %17 = alloca ptr, align 8
  %18 = alloca i32, align 4
  %19 = alloca ptr, align 8
  %20 = alloca ptr, align 8
  %21 = alloca ptr, align 8
  %22 = alloca i64, align 8
  %23 = alloca ptr, align 8
  %24 = alloca i8, align 1
  %25 = alloca i32, align 4
  store ptr %0, ptr %7, align 8, !tbaa !3
  store ptr %1, ptr %8, align 8, !tbaa !8
  store ptr %2, ptr %9, align 8, !tbaa !10
  store ptr %3, ptr %10, align 8, !tbaa !12
  store ptr %4, ptr %11, align 8, !tbaa !14
  br label %26

26:                                               ; preds = %5
  br label %27

27:                                               ; preds = %26
  call void @llvm.lifetime.start.p0(i64 8, ptr %12) #10
  %28 = load ptr, ptr %11, align 8, !tbaa !14
  %29 = getelementptr inbounds nuw %struct.sec_opts_s, ptr %28, i32 0, i32 1
  %30 = load i64, ptr %29, align 8, !tbaa !16
  %31 = and i64 %30, -4096
  store i64 %31, ptr %12, align 8, !tbaa !19
  call void @llvm.lifetime.start.p0(i64 4, ptr %13) #10
  %32 = load i64, ptr %12, align 8, !tbaa !19
  %33 = call i32 @sz_psz2ind(i64 noundef %32)
  %34 = add i32 %33, 1
  store i32 %34, ptr %13, align 4, !tbaa !20
  call void @llvm.lifetime.start.p0(i64 8, ptr %14) #10
  %35 = load ptr, ptr %11, align 8, !tbaa !14
  %36 = getelementptr inbounds nuw %struct.sec_opts_s, ptr %35, i32 0, i32 0
  %37 = load i64, ptr %36, align 8, !tbaa !22
  %38 = mul i64 %37, 144
  store i64 %38, ptr %14, align 8, !tbaa !19
  call void @llvm.lifetime.start.p0(i64 8, ptr %15) #10
  %39 = load ptr, ptr %11, align 8, !tbaa !14
  %40 = getelementptr inbounds nuw %struct.sec_opts_s, ptr %39, i32 0, i32 0
  %41 = load i64, ptr %40, align 8, !tbaa !22
  %42 = load i32, ptr %13, align 4, !tbaa !20
  %43 = zext i32 %42 to i64
  %44 = mul i64 %41, %43
  %45 = mul i64 %44, 24
  store i64 %45, ptr %15, align 8, !tbaa !19
  call void @llvm.lifetime.start.p0(i64 8, ptr %16) #10
  %46 = load i64, ptr %14, align 8, !tbaa !19
  %47 = load i64, ptr %15, align 8, !tbaa !19
  %48 = add i64 %46, %47
  store i64 %48, ptr %16, align 8, !tbaa !19
  call void @llvm.lifetime.start.p0(i64 8, ptr %17) #10
  %49 = load ptr, ptr %7, align 8, !tbaa !3
  %50 = load ptr, ptr %9, align 8, !tbaa !10
  %51 = load i64, ptr %16, align 8, !tbaa !19
  %52 = call ptr @duckdb_je_base_alloc(ptr noundef %49, ptr noundef %50, i64 noundef %51, i64 noundef 64)
  store ptr %52, ptr %17, align 8, !tbaa !23
  %53 = load ptr, ptr %17, align 8, !tbaa !23
  %54 = icmp eq ptr %53, null
  br i1 %54, label %55, label %56

55:                                               ; preds = %27
  store i1 true, ptr %6, align 1
  store i32 1, ptr %18, align 4
  br label %156

56:                                               ; preds = %27
  call void @llvm.lifetime.start.p0(i64 8, ptr %19) #10
  %57 = load ptr, ptr %17, align 8, !tbaa !23
  store ptr %57, ptr %19, align 8, !tbaa !24
  %58 = load ptr, ptr %19, align 8, !tbaa !24
  %59 = load ptr, ptr %8, align 8, !tbaa !8
  %60 = getelementptr inbounds nuw %struct.sec_s, ptr %59, i32 0, i32 3
  store ptr %58, ptr %60, align 8, !tbaa !26
  call void @llvm.lifetime.start.p0(i64 8, ptr %20) #10
  %61 = load ptr, ptr %19, align 8, !tbaa !24
  %62 = load ptr, ptr %11, align 8, !tbaa !14
  %63 = getelementptr inbounds nuw %struct.sec_opts_s, ptr %62, i32 0, i32 0
  %64 = load i64, ptr %63, align 8, !tbaa !22
  %65 = getelementptr inbounds nuw %struct.sec_shard_s, ptr %61, i64 %64
  store ptr %65, ptr %20, align 8, !tbaa !29
  call void @llvm.lifetime.start.p0(i64 8, ptr %21) #10
  %66 = load ptr, ptr %20, align 8, !tbaa !29
  store ptr %66, ptr %21, align 8, !tbaa !29
  call void @llvm.lifetime.start.p0(i64 8, ptr %22) #10
  store i64 0, ptr %22, align 8, !tbaa !19
  br label %67

67:                                               ; preds = %116, %56
  %68 = load i64, ptr %22, align 8, !tbaa !19
  %69 = load ptr, ptr %11, align 8, !tbaa !14
  %70 = getelementptr inbounds nuw %struct.sec_opts_s, ptr %69, i32 0, i32 0
  %71 = load i64, ptr %70, align 8, !tbaa !22
  %72 = icmp ult i64 %68, %71
  br i1 %72, label %74, label %73

73:                                               ; preds = %67
  store i32 4, ptr %18, align 4
  br label %119

74:                                               ; preds = %67
  call void @llvm.lifetime.start.p0(i64 8, ptr %23) #10
  %75 = load ptr, ptr %19, align 8, !tbaa !24
  store ptr %75, ptr %23, align 8, !tbaa !24
  %76 = load ptr, ptr %19, align 8, !tbaa !24
  %77 = getelementptr inbounds nuw %struct.sec_shard_s, ptr %76, i32 1
  store ptr %77, ptr %19, align 8, !tbaa !24
  call void @llvm.lifetime.start.p0(i64 1, ptr %24) #10
  %78 = load ptr, ptr %23, align 8, !tbaa !24
  %79 = getelementptr inbounds nuw %struct.sec_shard_s, ptr %78, i32 0, i32 0
  %80 = call zeroext i1 @duckdb_je_malloc_mutex_init(ptr noundef %79, ptr noundef @.str, i32 noundef 16, i32 noundef 0)
  %81 = zext i1 %80 to i8
  store i8 %81, ptr %24, align 1, !tbaa !31
  %82 = load i8, ptr %24, align 1, !tbaa !31, !range !33, !noundef !34
  %83 = trunc i8 %82 to i1
  br i1 %83, label %84, label %85

84:                                               ; preds = %74
  store i1 true, ptr %6, align 1
  store i32 1, ptr %18, align 4
  br label %113

85:                                               ; preds = %74
  %86 = load ptr, ptr %23, align 8, !tbaa !24
  %87 = getelementptr inbounds nuw %struct.sec_shard_s, ptr %86, i32 0, i32 1
  store i8 1, ptr %87, align 8, !tbaa !35
  %88 = load ptr, ptr %20, align 8, !tbaa !29
  %89 = load ptr, ptr %23, align 8, !tbaa !24
  %90 = getelementptr inbounds nuw %struct.sec_shard_s, ptr %89, i32 0, i32 2
  store ptr %88, ptr %90, align 8, !tbaa !38
  call void @llvm.lifetime.start.p0(i64 4, ptr %25) #10
  store i32 0, ptr %25, align 4, !tbaa !20
  br label %91

91:                                               ; preds = %105, %85
  %92 = load i32, ptr %25, align 4, !tbaa !20
  %93 = load i32, ptr %13, align 4, !tbaa !20
  %94 = icmp ult i32 %92, %93
  br i1 %94, label %96, label %95

95:                                               ; preds = %91
  store i32 7, ptr %18, align 4
  call void @llvm.lifetime.end.p0(i64 4, ptr %25) #10
  br label %108

96:                                               ; preds = %91
  %97 = load ptr, ptr %23, align 8, !tbaa !24
  %98 = getelementptr inbounds nuw %struct.sec_shard_s, ptr %97, i32 0, i32 2
  %99 = load ptr, ptr %98, align 8, !tbaa !38
  %100 = load i32, ptr %25, align 4, !tbaa !20
  %101 = zext i32 %100 to i64
  %102 = getelementptr inbounds nuw %struct.sec_bin_s, ptr %99, i64 %101
  call void @sec_bin_init(ptr noundef %102)
  %103 = load ptr, ptr %20, align 8, !tbaa !29
  %104 = getelementptr inbounds nuw %struct.sec_bin_s, ptr %103, i32 1
  store ptr %104, ptr %20, align 8, !tbaa !29
  br label %105

105:                                              ; preds = %96
  %106 = load i32, ptr %25, align 4, !tbaa !20
  %107 = add i32 %106, 1
  store i32 %107, ptr %25, align 4, !tbaa !20
  br label %91

108:                                              ; preds = %95
  %109 = load ptr, ptr %23, align 8, !tbaa !24
  %110 = getelementptr inbounds nuw %struct.sec_shard_s, ptr %109, i32 0, i32 3
  store i64 0, ptr %110, align 8, !tbaa !39
  %111 = load ptr, ptr %23, align 8, !tbaa !24
  %112 = getelementptr inbounds nuw %struct.sec_shard_s, ptr %111, i32 0, i32 4
  store i32 0, ptr %112, align 8, !tbaa !40
  store i32 0, ptr %18, align 4
  br label %113

113:                                              ; preds = %108, %84
  call void @llvm.lifetime.end.p0(i64 1, ptr %24) #10
  call void @llvm.lifetime.end.p0(i64 8, ptr %23) #10
  %114 = load i32, ptr %18, align 4
  switch i32 %114, label %119 [
    i32 0, label %115
  ]

115:                                              ; preds = %113
  br label %116

116:                                              ; preds = %115
  %117 = load i64, ptr %22, align 8, !tbaa !19
  %118 = add i64 %117, 1
  store i64 %118, ptr %22, align 8, !tbaa !19
  br label %67

119:                                              ; preds = %113, %73
  call void @llvm.lifetime.end.p0(i64 8, ptr %22) #10
  %120 = load i32, ptr %18, align 4
  switch i32 %120, label %155 [
    i32 4, label %121
  ]

121:                                              ; preds = %119
  br label %122

122:                                              ; preds = %121
  br label %123

123:                                              ; preds = %122
  br label %124

124:                                              ; preds = %123
  br label %125

125:                                              ; preds = %124
  br label %126

126:                                              ; preds = %125
  br label %127

127:                                              ; preds = %126
  %128 = load ptr, ptr %10, align 8, !tbaa !12
  %129 = load ptr, ptr %8, align 8, !tbaa !8
  %130 = getelementptr inbounds nuw %struct.sec_s, ptr %129, i32 0, i32 1
  store ptr %128, ptr %130, align 8, !tbaa !41
  %131 = load ptr, ptr %8, align 8, !tbaa !8
  %132 = getelementptr inbounds nuw %struct.sec_s, ptr %131, i32 0, i32 2
  %133 = load ptr, ptr %11, align 8, !tbaa !14
  call void @llvm.memcpy.p0.p0.i64(ptr align 8 %132, ptr align 8 %133, i64 40, i1 false), !tbaa.struct !42
  %134 = load i32, ptr %13, align 4, !tbaa !20
  %135 = load ptr, ptr %8, align 8, !tbaa !8
  %136 = getelementptr inbounds nuw %struct.sec_s, ptr %135, i32 0, i32 4
  store i32 %134, ptr %136, align 8, !tbaa !43
  %137 = load ptr, ptr %8, align 8, !tbaa !8
  %138 = getelementptr inbounds nuw %struct.sec_s, ptr %137, i32 0, i32 0
  %139 = getelementptr inbounds nuw %struct.pai_s, ptr %138, i32 0, i32 0
  store ptr @sec_alloc, ptr %139, align 8, !tbaa !44
  %140 = load ptr, ptr %8, align 8, !tbaa !8
  %141 = getelementptr inbounds nuw %struct.sec_s, ptr %140, i32 0, i32 0
  %142 = getelementptr inbounds nuw %struct.pai_s, ptr %141, i32 0, i32 1
  store ptr @duckdb_je_pai_alloc_batch_default, ptr %142, align 8, !tbaa !45
  %143 = load ptr, ptr %8, align 8, !tbaa !8
  %144 = getelementptr inbounds nuw %struct.sec_s, ptr %143, i32 0, i32 0
  %145 = getelementptr inbounds nuw %struct.pai_s, ptr %144, i32 0, i32 2
  store ptr @sec_expand, ptr %145, align 8, !tbaa !46
  %146 = load ptr, ptr %8, align 8, !tbaa !8
  %147 = getelementptr inbounds nuw %struct.sec_s, ptr %146, i32 0, i32 0
  %148 = getelementptr inbounds nuw %struct.pai_s, ptr %147, i32 0, i32 3
  store ptr @sec_shrink, ptr %148, align 8, !tbaa !47
  %149 = load ptr, ptr %8, align 8, !tbaa !8
  %150 = getelementptr inbounds nuw %struct.sec_s, ptr %149, i32 0, i32 0
  %151 = getelementptr inbounds nuw %struct.pai_s, ptr %150, i32 0, i32 4
  store ptr @sec_dalloc, ptr %151, align 8, !tbaa !48
  %152 = load ptr, ptr %8, align 8, !tbaa !8
  %153 = getelementptr inbounds nuw %struct.sec_s, ptr %152, i32 0, i32 0
  %154 = getelementptr inbounds nuw %struct.pai_s, ptr %153, i32 0, i32 5
  store ptr @duckdb_je_pai_dalloc_batch_default, ptr %154, align 8, !tbaa !49
  store i1 false, ptr %6, align 1
  store i32 1, ptr %18, align 4
  br label %155

155:                                              ; preds = %127, %119
  call void @llvm.lifetime.end.p0(i64 8, ptr %21) #10
  call void @llvm.lifetime.end.p0(i64 8, ptr %20) #10
  call void @llvm.lifetime.end.p0(i64 8, ptr %19) #10
  br label %156

156:                                              ; preds = %155, %55
  call void @llvm.lifetime.end.p0(i64 8, ptr %17) #10
  call void @llvm.lifetime.end.p0(i64 8, ptr %16) #10
  call void @llvm.lifetime.end.p0(i64 8, ptr %15) #10
  call void @llvm.lifetime.end.p0(i64 8, ptr %14) #10
  call void @llvm.lifetime.end.p0(i64 4, ptr %13) #10
  call void @llvm.lifetime.end.p0(i64 8, ptr %12) #10
  %157 = load i1, ptr %6, align 1
  ret i1 %157
}